target datalayout = "e-m:e-p270:32:32-p271:32:32-p272:64:64-i64:64-i128:128-f80:128-n8:16:32:64-S128"
target triple = "x86_64-pc-linux-gnu"

%"class.clang::SourceLocation" = type { i32 }
%"class.clang::FileID" = type { i32 }
%"struct.std::pair.184" = type { %"class.clang::FileID", i32 }

; Function Attrs: mustprogress nounwind uwtable
define linkonce_odr hidden noundef zeroext i1 @_ZNK5clang14SourceLocation9isInvalidEv(ptr noundef nonnull align 4 dereferenceable(4) %0) #1 comdat align 2 {
  %2 = alloca ptr, align 8
  store ptr %0, ptr %2, align 8
  %3 = load ptr, ptr %2, align 8
  %4 = getelementptr inbounds nuw %"class.clang::SourceLocation", ptr %3, i32 0, i32 0
  %5 = load i32, ptr %4, align 4
  %6 = icmp eq i32 %5, 0
  ret i1 %6
}

; Function Attrs: mustprogress nounwind uwtable
define internal noundef zeroext i1 @_ZL9isInvalidIN5clang14SourceLocationEEbT_Pb(i32 %0, ptr noundef %1) #1 {
  %3 = alloca %"class.clang::SourceLocation", align 4
  %4 = alloca ptr, align 8
  %5 = alloca i8, align 1
  %6 = getelementptr inbounds nuw %"class.clang::SourceLocation", ptr %3, i32 0, i32 0
  store i32 %0, ptr %6, align 4
  store ptr %1, ptr %4, align 8
  %7 = call noundef zeroext i1 @_ZNK5clang14SourceLocation9isInvalidEv(ptr noundef nonnull align 4 dereferenceable(4) %3)
  %8 = zext i1 %7 to i8
  store i8 %8, ptr %5, align 1
  %9 = load ptr, ptr %4, align 8
  %10 = icmp ne ptr %9, null
  br i1 %10, label %11, label %16

11:                                               ; preds = %2
  %12 = load i8, ptr %5, align 1
  %13 = trunc i8 %12 to i1
  %14 = load ptr, ptr %4, align 8
  %15 = zext i1 %13 to i8
  store i8 %15, ptr %14, align 1
  br label %16

16:                                               ; preds = %11, %2
  %17 = load i8, ptr %5, align 1
  %18 = trunc i8 %17 to i1
  ret i1 %18
}

; Function Attrs: mustprogress nounwind uwtable
define dso_local noundef i32 @_ZNK5clang13SourceManager21getSpellingLineNumberENS_14SourceLocationEPb(ptr noundef nonnull align 8 dereferenceable(696) %0, i32 %1, ptr noundef %2) #1 align 2 {
  %4 = alloca i32, align 4
  %5 = alloca %"class.clang::SourceLocation", align 4
  %6 = alloca ptr, align 8
  %7 = alloca ptr, align 8
  %8 = alloca %"class.clang::SourceLocation", align 4
  %9 = alloca %"struct.std::pair.184", align 4
  %10 = alloca %"class.clang::SourceLocation", align 4
  %11 = alloca %"class.clang::FileID", align 4
  %12 = getelementptr inbounds nuw %"class.clang::SourceLocation", ptr %5, i32 0, i32 0
  store i32 %1, ptr %12, align 4
  store ptr %0, ptr %6, align 8
  store ptr %2, ptr %7, align 8
  %13 = load ptr, ptr %6, align 8
  call void @llvm.memcpy.p0.p0.i64(ptr align 4 %8, ptr align 4 %5, i64 4, i1 false)
  %14 = load ptr, ptr %7, align 8
  %15 = getelementptr inbounds nuw %"class.clang::SourceLocation", ptr %8, i32 0, i32 0
  %16 = load i32, ptr %15, align 4
  %17 = call noundef zeroext i1 @_ZL9isInvalidIN5clang14SourceLocationEEbT_Pb(i32 %16, ptr noundef %14)
  br i1 %17, label %18, label %19

18:                                               ; preds = %3
  store i32 0, ptr %4, align 4
  br label %29

19:                                               ; preds = %3
  call void @llvm.memcpy.p0.p0.i64(ptr align 4 %10, ptr align 4 %5, i64 4, i1 false)
  %20 = getelementptr inbounds nuw %"class.clang::SourceLocation", ptr %10, i32 0, i32 0
  %21 = load i32, ptr %20, align 4
  %22 = call i64 @_ZNK5clang13SourceManager24getDecomposedSpellingLocENS_14SourceLocationE(ptr noundef nonnull align 8 dereferenceable(696) %13, i32 %21)
  store i64 %22, ptr %9, align 4
  %23 = getelementptr inbounds nuw %"struct.std::pair.184", ptr %9, i32 0, i32 0
  call void @llvm.memcpy.p0.p0.i64(ptr align 4 %11, ptr align 4 %23, i64 4, i1 false)
  %24 = getelementptr inbounds nuw %"struct.std::pair.184", ptr %9, i32 0, i32 1
  %25 = load i32, ptr %24, align 4
  %26 = getelementptr inbounds nuw %"class.clang::FileID", ptr %11, i32 0, i32 0
  %27 = load i32, ptr %26, align 4
  %28 = call noundef i32 @_ZNK5clang13SourceManager13getLineNumberENS_6FileIDEjPb(ptr noundef nonnull align 8 dereferenceable(696) %13, i32 %27, i32 noundef %25, ptr noundef null)
  store i32 %28, ptr %4, align 4
  br label %29

29:                                               ; preds = %19, %18
  %30 = load i32, ptr %4, align 4
  ret i32 %30
}