; Function Attrs: mustprogress nounwind uwtable
define dso_local noundef i32 @_ZNK5clang13SourceManager21getSpellingLineNumberENS_14SourceLocationEPb(ptr noundef nonnull align 8 dereferenceable(696) %0, i32 %1, ptr noundef writeonly %2) local_unnamed_addr #1 align 2 {
  %4 = icmp eq i32 %1, 0
  %.not.i = icmp eq ptr %2, null
  br i1 %.not.i, label %_ZL9isInvalidIN5clang14SourceLocationEEbT_Pb.exit, label %5

5:                                                ; preds = %3
  %6 = zext i1 %4 to i8
  store i8 %6, ptr %2, align 1
  br label %_ZL9isInvalidIN5clang14SourceLocationEEbT_Pb.exit

_ZL9isInvalidIN5clang14SourceLocationEEbT_Pb.exit: ; preds = %3, %5
  br i1 %4, label %10, label %7

7:                                                ; preds = %_ZL9isInvalidIN5clang14SourceLocationEEbT_Pb.exit
  %8 = tail call i64 @_ZNK5clang13SourceManager24getDecomposedSpellingLocENS_14SourceLocationE(ptr noundef nonnull align 8 dereferenceable(696) %0, i32 %1)
  %.sroa.02.0.extract.trunc = trunc i64 %8 to i32
  %.sroa.2.0.extract.shift = lshr i64 %8, 32
  %.sroa.2.0.extract.trunc = trunc nuw i64 %.sroa.2.0.extract.shift to i32
  %9 = tail call noundef i32 @_ZNK5clang13SourceManager13getLineNumberENS_6FileIDEjPb(ptr noundef nonnull align 8 dereferenceable(696) %0, i32 %.sroa.02.0.extract.trunc, i32 noundef %.sroa.2.0.extract.trunc, ptr noundef null)
  br label %10

10:                                               ; preds = %_ZL9isInvalidIN5clang14SourceLocationEEbT_Pb.exit, %7
  %.0 = phi i32 [ %9, %7 ], [ 0, %_ZL9isInvalidIN5clang14SourceLocationEEbT_Pb.exit ]
  ret i32 %.0
}